; Function Attrs: cold mustprogress noreturn nounwind uwtable
define internal fastcc void @_ZN6hermes12_GLOBAL__N_15GenJS5visitEPNS_6ESTree4NodeE(ptr noundef %n) unnamed_addr #2 align 2 {
entry:
  %call = tail call noundef nonnull align 8 dereferenceable(36) ptr @_ZN4llvh4errsEv() #12
  %call2 = tail call noundef nonnull align 8 dereferenceable(36) ptr @_ZN4llvh11raw_ostreamlsEPKc(ptr noundef nonnull align 8 dereferenceable(36) %call, ptr noundef nonnull @.str.2)
  %call3 = tail call { ptr, i64 } @_ZN6hermes6ESTree4Node11getNodeNameEv(ptr noundef nonnull align 8 dereferenceable(48) %n)
  %0 = extractvalue { ptr, i64 } %call3, 0
  %1 = extractvalue { ptr, i64 } %call3, 1
  %call4 = tail call noundef nonnull align 8 dereferenceable(36) ptr @_ZN4llvh11raw_ostreamlsENS_9StringRefE(ptr noundef nonnull align 8 dereferenceable(36) %call2, ptr %0, i64 %1)
  %call5 = tail call noundef nonnull align 8 dereferenceable(36) ptr @_ZN4llvh11raw_ostreamlsEPKc(ptr noundef nonnull align 8 dereferenceable(36) %call4, ptr noundef nonnull @.str.3)
  tail call void @abort() #13
  unreachable
}